target datalayout = "e-m:e-p270:32:32-p271:32:32-p272:64:64-i64:64-i128:128-f80:128-n8:16:32:64-S128"
target triple = "x86_64-pc-linux-gnu"

%"class.std::optional.20" = type { %"struct.std::_Optional_base.21" }
%"struct.std::_Optional_base.21" = type { %"struct.std::_Optional_payload.23" }
%"struct.std::_Optional_payload.23" = type { %"struct.std::_Optional_payload_base.base.25", [7 x i8] }
%"struct.std::_Optional_payload_base.base.25" = type <{ %"union.std::_Optional_payload_base<const Luau::TypeFunctionType *>::_Storage", i8 }>
%"union.std::_Optional_payload_base<const Luau::TypeFunctionType *>::_Storage" = type { ptr }
%"struct.std::_Optional_payload_base.24" = type <{ %"union.std::_Optional_payload_base<const Luau::TypeFunctionType *>::_Storage", i8, [7 x i8] }>

@.str.67 = private unnamed_addr constant [5 x i8] c"type\00", align 1

; Function Attrs: mustprogress nounwind uwtable
define linkonce_odr dso_local void @_ZNSt22_Optional_payload_baseIPKN4Luau16TypeFunctionTypeEE8_StorageIS3_Lb1EEC2IJS3_EEESt10in_place_tDpOT_(ptr noundef nonnull align 8 dereferenceable(8) %0, ptr noundef nonnull align 8 dereferenceable(8) %1) unnamed_addr #2 comdat align 2 {
  %3 = alloca ptr, align 8
  %4 = alloca ptr, align 8
  store ptr %0, ptr %3, align 8, !tbaa !257
  store ptr %1, ptr %4, align 8, !tbaa !60
  %5 = load ptr, ptr %3, align 8
  %6 = load ptr, ptr %4, align 8, !tbaa !60
  %7 = load ptr, ptr %6, align 8, !tbaa !45
  store ptr %7, ptr %5, align 8, !tbaa !240
  ret void
}

; Function Attrs: mustprogress nounwind uwtable
define linkonce_odr dso_local void @_ZNSt22_Optional_payload_baseIPKN4Luau16TypeFunctionTypeEE8_StorageIS3_Lb1EEC2Ev(ptr noundef nonnull align 8 dereferenceable(8) %0) unnamed_addr #2 comdat align 2 {
  %2 = alloca ptr, align 8
  store ptr %0, ptr %2, align 8, !tbaa !257
  ret void
}

; Function Attrs: mustprogress uwtable
define linkonce_odr dso_local void @_ZNSt22_Optional_payload_baseIPKN4Luau16TypeFunctionTypeEEC2IJS3_EEESt10in_place_tDpOT_(ptr noundef nonnull align 8 dereferenceable(9) %0, ptr noundef nonnull align 8 dereferenceable(8) %1) unnamed_addr #3 comdat align 2 {
  %3 = alloca ptr, align 8
  %4 = alloca ptr, align 8
  store ptr %0, ptr %3, align 8, !tbaa !254
  store ptr %1, ptr %4, align 8, !tbaa !60
  %5 = load ptr, ptr %3, align 8
  %6 = getelementptr inbounds nuw %"struct.std::_Optional_payload_base.24", ptr %5, i32 0, i32 0
  %7 = load ptr, ptr %4, align 8, !tbaa !60
  call void @_ZNSt22_Optional_payload_baseIPKN4Luau16TypeFunctionTypeEE8_StorageIS3_Lb1EEC2IJS3_EEESt10in_place_tDpOT_(ptr noundef nonnull align 8 dereferenceable(8) %6, ptr noundef nonnull align 8 dereferenceable(8) %7)
  %8 = getelementptr inbounds nuw %"struct.std::_Optional_payload_base.24", ptr %5, i32 0, i32 1
  store i8 1, ptr %8, align 8, !tbaa !256
  ret void
}

; Function Attrs: mustprogress nounwind uwtable
define linkonce_odr dso_local void @_ZNSt22_Optional_payload_baseIPKN4Luau16TypeFunctionTypeEEC2Ev(ptr noundef nonnull align 8 dereferenceable(9) %0) unnamed_addr #2 comdat align 2 {
  %2 = alloca ptr, align 8
  store ptr %0, ptr %2, align 8, !tbaa !254
  %3 = load ptr, ptr %2, align 8
  %4 = getelementptr inbounds nuw %"struct.std::_Optional_payload_base.24", ptr %3, i32 0, i32 0
  call void @_ZNSt22_Optional_payload_baseIPKN4Luau16TypeFunctionTypeEE8_StorageIS3_Lb1EEC2Ev(ptr noundef nonnull align 8 dereferenceable(8) %4) #17
  %5 = getelementptr inbounds nuw %"struct.std::_Optional_payload_base.24", ptr %3, i32 0, i32 1
  store i8 0, ptr %5, align 8, !tbaa !256
  ret void
}

; Function Attrs: inlinehint mustprogress uwtable
define linkonce_odr dso_local void @_ZNSt17_Optional_payloadIPKN4Luau16TypeFunctionTypeELb1ELb1ELb1EECI2St22_Optional_payload_baseIS3_EIJS3_EEESt10in_place_tDpOT_(ptr noundef nonnull align 8 dereferenceable(9) %0, ptr noundef nonnull align 8 dereferenceable(8) %1) unnamed_addr #12 comdat align 2 {
  %3 = alloca ptr, align 8
  %4 = alloca ptr, align 8
  store ptr %0, ptr %3, align 8, !tbaa !252
  store ptr %1, ptr %4, align 8, !tbaa !60
  %5 = load ptr, ptr %3, align 8
  %6 = load ptr, ptr %4, align 8
  call void @_ZNSt22_Optional_payload_baseIPKN4Luau16TypeFunctionTypeEEC2IJS3_EEESt10in_place_tDpOT_(ptr noundef nonnull align 8 dereferenceable(9) %5, ptr noundef nonnull align 8 dereferenceable(8) %6)
  ret void
}

; Function Attrs: mustprogress nounwind uwtable
define linkonce_odr dso_local void @_ZNSt17_Optional_payloadIPKN4Luau16TypeFunctionTypeELb1ELb1ELb1EEC2Ev(ptr noundef nonnull align 8 dereferenceable(9) %0) unnamed_addr #2 comdat align 2 {
  %2 = alloca ptr, align 8
  store ptr %0, ptr %2, align 8, !tbaa !252
  %3 = load ptr, ptr %2, align 8
  call void @_ZNSt22_Optional_payload_baseIPKN4Luau16TypeFunctionTypeEEC2Ev(ptr noundef nonnull align 8 dereferenceable(9) %3) #17
  ret void
}

; Function Attrs: noinline noreturn nounwind uwtable
define linkonce_odr hidden void @__clang_call_terminate(ptr noundef %0) #11 comdat {
  %2 = call ptr @__cxa_begin_catch(ptr %0) #17
  call void @_ZSt9terminatev() #19
  unreachable
}

; Function Attrs: mustprogress uwtable
define linkonce_odr dso_local void @_ZNSt14_Optional_baseIPKN4Luau16TypeFunctionTypeELb1ELb1EEC2IJS3_ETnNSt9enable_ifIX18is_constructible_vIS3_DpT_EEbE4typeELb0EEESt10in_place_tDpOS7_(ptr noundef nonnull align 8 dereferenceable(16) %0, ptr noundef nonnull align 8 dereferenceable(8) %1) unnamed_addr #3 comdat align 2 {
  %3 = alloca ptr, align 8
  %4 = alloca ptr, align 8
  store ptr %0, ptr %3, align 8, !tbaa !250
  store ptr %1, ptr %4, align 8, !tbaa !60
  %5 = load ptr, ptr %3, align 8
  %6 = getelementptr inbounds nuw %"struct.std::_Optional_base.21", ptr %5, i32 0, i32 0
  %7 = load ptr, ptr %4, align 8, !tbaa !60
  call void @_ZNSt17_Optional_payloadIPKN4Luau16TypeFunctionTypeELb1ELb1ELb1EECI2St22_Optional_payload_baseIS3_EIJS3_EEESt10in_place_tDpOT_(ptr noundef nonnull align 8 dereferenceable(9) %6, ptr noundef nonnull align 8 dereferenceable(8) %7)
  ret void
}

; Function Attrs: mustprogress nounwind uwtable
define linkonce_odr dso_local void @_ZNSt14_Optional_baseIPKN4Luau16TypeFunctionTypeELb1ELb1EEC2Ev(ptr noundef nonnull align 8 dereferenceable(16) %0) unnamed_addr #2 comdat align 2 {
  %2 = alloca ptr, align 8
  store ptr %0, ptr %2, align 8, !tbaa !250
  %3 = load ptr, ptr %2, align 8
  %4 = getelementptr inbounds nuw %"struct.std::_Optional_base.21", ptr %3, i32 0, i32 0
  call void @_ZNSt17_Optional_payloadIPKN4Luau16TypeFunctionTypeELb1ELb1ELb1EEC2Ev(ptr noundef nonnull align 8 dereferenceable(9) %4) #17
  ret void
}

; Function Attrs: mustprogress nounwind uwtable
define linkonce_odr dso_local void @_ZNSt8optionalIPKN4Luau16TypeFunctionTypeEEC2IS3_TnNSt9enable_ifIX7__and_vISt6__not_ISt7is_sameIS4_NSt9remove_cvINSt16remove_referenceIT_E4typeEE4typeEEES7_IS8_ISt10in_place_tSF_EESt16is_constructibleIS3_JSB_EESt14is_convertibleISB_S3_EEEbE4typeELb1EEEOSB_(ptr noundef nonnull align 8 dereferenceable(16) %0, ptr noundef nonnull align 8 dereferenceable(8) %1) unnamed_addr #2 comdat align 2 personality ptr @__gxx_personality_v0 {
  %3 = alloca ptr, align 8
  %4 = alloca ptr, align 8
  store ptr %0, ptr %3, align 8, !tbaa !63
  store ptr %1, ptr %4, align 8, !tbaa !60
  %5 = load ptr, ptr %3, align 8
  %6 = load ptr, ptr %4, align 8, !tbaa !60
  invoke void @_ZNSt14_Optional_baseIPKN4Luau16TypeFunctionTypeELb1ELb1EEC2IJS3_ETnNSt9enable_ifIX18is_constructible_vIS3_DpT_EEbE4typeELb0EEESt10in_place_tDpOS7_(ptr noundef nonnull align 8 dereferenceable(16) %5, ptr noundef nonnull align 8 dereferenceable(8) %6)
          to label %7 unwind label %8

7:                                                ; preds = %2
  ret void

8:                                                ; preds = %2
  %9 = landingpad { ptr, i32 }
          catch ptr null
  %10 = extractvalue { ptr, i32 } %9, 0
  call void @__clang_call_terminate(ptr %10) #19
  unreachable
}

; Function Attrs: mustprogress uwtable
define dso_local noundef ptr @_ZN4Luau15getTypeUserDataEP9lua_Statei(ptr noundef %0, i32 noundef %1) #3 {
  %3 = alloca ptr, align 8
  %4 = alloca ptr, align 8
  %5 = alloca i32, align 4
  %6 = alloca ptr, align 8
  %7 = alloca i32, align 4
  store ptr %0, ptr %4, align 8, !tbaa !25
  store i32 %1, ptr %5, align 4, !tbaa !4
  call void @llvm.lifetime.start.p0(i64 8, ptr %6) #17
  %8 = load ptr, ptr %4, align 8, !tbaa !25
  %9 = load i32, ptr %5, align 4, !tbaa !4
  %10 = call noundef ptr @_Z20lua_touserdatataggedP9lua_Stateii(ptr noundef %8, i32 noundef %9, i32 noundef 42)
  store ptr %10, ptr %6, align 8, !tbaa !60
  %11 = load ptr, ptr %6, align 8, !tbaa !60
  %12 = icmp ne ptr %11, null
  br i1 %12, label %13, label %16

13:                                               ; preds = %2
  %14 = load ptr, ptr %6, align 8, !tbaa !60
  %15 = load ptr, ptr %14, align 8, !tbaa !45
  store ptr %15, ptr %3, align 8
  store i32 1, ptr %7, align 4
  br label %17

16:                                               ; preds = %2
  store i32 0, ptr %7, align 4
  br label %17

17:                                               ; preds = %16, %13
  call void @llvm.lifetime.end.p0(i64 8, ptr %6) #17
  %18 = load i32, ptr %7, align 4
  switch i32 %18, label %24 [
    i32 0, label %19
    i32 1, label %22
  ]

19:                                               ; preds = %17
  %20 = load ptr, ptr %4, align 8, !tbaa !25
  %21 = load i32, ptr %5, align 4, !tbaa !4
  call void @_Z15luaL_typeerrorLP9lua_StateiPKc(ptr noundef %20, i32 noundef %21, ptr noundef @.str.67) #20
  unreachable

22:                                               ; preds = %17
  %23 = load ptr, ptr %3, align 8
  ret ptr %23

24:                                               ; preds = %17
  unreachable
}

; Function Attrs: mustprogress nounwind uwtable
define linkonce_odr dso_local void @_ZNSt8optionalIPKN4Luau16TypeFunctionTypeEEC2ESt9nullopt_t(ptr noundef nonnull align 8 dereferenceable(16) %0) unnamed_addr #2 comdat align 2 {
  %2 = alloca ptr, align 8
  store ptr %0, ptr %2, align 8, !tbaa !63
  %3 = load ptr, ptr %2, align 8
  call void @_ZNSt14_Optional_baseIPKN4Luau16TypeFunctionTypeELb1ELb1EEC2Ev(ptr noundef nonnull align 8 dereferenceable(16) %3) #17
  ret void
}

; Function Attrs: mustprogress uwtable
define dso_local { ptr, i8 } @_ZN4Luau20optionalTypeUserDataEP9lua_Statei(ptr noundef %0, i32 noundef %1) #3 {
  %3 = alloca %"class.std::optional.20", align 8
  %4 = alloca ptr, align 8
  %5 = alloca i32, align 4
  %6 = alloca ptr, align 8
  store ptr %0, ptr %4, align 8, !tbaa !25
  store i32 %1, ptr %5, align 4, !tbaa !4
  %7 = load ptr, ptr %4, align 8, !tbaa !25
  %8 = load i32, ptr %5, align 4, !tbaa !4
  %9 = call noundef i32 @_Z8lua_typeP9lua_Statei(ptr noundef %7, i32 noundef %8)
  %10 = icmp sle i32 %9, 0
  br i1 %10, label %11, label %12

11:                                               ; preds = %2
  call void @_ZNSt8optionalIPKN4Luau16TypeFunctionTypeEEC2ESt9nullopt_t(ptr noundef nonnull align 8 dereferenceable(16) %3) #17
  br label %16

12:                                               ; preds = %2
  call void @llvm.lifetime.start.p0(i64 8, ptr %6) #17
  %13 = load ptr, ptr %4, align 8, !tbaa !25
  %14 = load i32, ptr %5, align 4, !tbaa !4
  %15 = call noundef ptr @_ZN4Luau15getTypeUserDataEP9lua_Statei(ptr noundef %13, i32 noundef %14)
  store ptr %15, ptr %6, align 8, !tbaa !45
  call void @_ZNSt8optionalIPKN4Luau16TypeFunctionTypeEEC2IS3_TnNSt9enable_ifIX7__and_vISt6__not_ISt7is_sameIS4_NSt9remove_cvINSt16remove_referenceIT_E4typeEE4typeEEES7_IS8_ISt10in_place_tSF_EESt16is_constructibleIS3_JSB_EESt14is_convertibleISB_S3_EEEbE4typeELb1EEEOSB_(ptr noundef nonnull align 8 dereferenceable(16) %3, ptr noundef nonnull align 8 dereferenceable(8) %6) #17
  call void @llvm.lifetime.end.p0(i64 8, ptr %6) #17
  br label %16

16:                                               ; preds = %12, %11
  %17 = getelementptr inbounds nuw %"class.std::optional.20", ptr %3, i32 0, i32 0
  %18 = getelementptr inbounds nuw %"struct.std::_Optional_base.21", ptr %17, i32 0, i32 0
  %19 = load { ptr, i8 }, ptr %18, align 8
  ret { ptr, i8 } %19
}