; Function Attrs: mustprogress uwtable
define dso_local { ptr, i8 } @_ZN4Luau20optionalTypeUserDataEP9lua_Statei(ptr noundef %0, i32 noundef %1) local_unnamed_addr #2 personality ptr @__gxx_personality_v0 {
  %3 = tail call noundef i32 @_Z8lua_typeP9lua_Statei(ptr noundef %0, i32 noundef %1)
  %4 = icmp slt i32 %3, 1
  br i1 %4, label %9, label %5

5:                                                ; preds = %2
  %6 = tail call noundef ptr @_Z20lua_touserdatataggedP9lua_Stateii(ptr noundef %0, i32 noundef %1, i32 noundef 42)
  %.not.not.i = icmp eq ptr %6, null
  br i1 %.not.not.i, label %7, label %_ZN4Luau15getTypeUserDataEP9lua_Statei.exit

7:                                                ; preds = %5
  tail call void @_Z15luaL_typeerrorLP9lua_StateiPKc(ptr noundef %0, i32 noundef %1, ptr noundef nonnull @.str.67) #29
  unreachable

_ZN4Luau15getTypeUserDataEP9lua_Statei.exit:      ; preds = %5
  %8 = load ptr, ptr %6, align 8, !tbaa !29
  br label %9

9:                                                ; preds = %2, %_ZN4Luau15getTypeUserDataEP9lua_Statei.exit
  %.sroa.0.0 = phi ptr [ %8, %_ZN4Luau15getTypeUserDataEP9lua_Statei.exit ], [ undef, %2 ]
  %.sroa.2.0 = phi i8 [ 1, %_ZN4Luau15getTypeUserDataEP9lua_Statei.exit ], [ 0, %2 ]
  %.fca.0.insert = insertvalue { ptr, i8 } poison, ptr %.sroa.0.0, 0
  %.fca.1.insert = insertvalue { ptr, i8 } %.fca.0.insert, i8 %.sroa.2.0, 1
  ret { ptr, i8 } %.fca.1.insert
}